target datalayout = "e-m:e-p270:32:32-p271:32:32-p272:64:64-i64:64-i128:128-f80:128-n8:16:32:64-S128"
target triple = "x86_64-pc-linux-gnu"

%"class.cv::wechat_qrcode::BinarizerMgr" = type { i32, i32, %"class.std::vector" }
%"class.std::vector" = type { %"struct.std::_Vector_base" }
%"struct.std::_Vector_base" = type { %"struct.std::_Vector_base<cv::wechat_qrcode::BinarizerMgr::BINARIZER, std::allocator<cv::wechat_qrcode::BinarizerMgr::BINARIZER>>::_Vector_impl" }
%"struct.std::_Vector_base<cv::wechat_qrcode::BinarizerMgr::BINARIZER, std::allocator<cv::wechat_qrcode::BinarizerMgr::BINARIZER>>::_Vector_impl" = type { %"struct.std::_Vector_base<cv::wechat_qrcode::BinarizerMgr::BINARIZER, std::allocator<cv::wechat_qrcode::BinarizerMgr::BINARIZER>>::_Vector_impl_data" }
%"struct.std::_Vector_base<cv::wechat_qrcode::BinarizerMgr::BINARIZER, std::allocator<cv::wechat_qrcode::BinarizerMgr::BINARIZER>>::_Vector_impl_data" = type { ptr, ptr, ptr }

; Function Attrs: mustprogress nounwind uwtable
define linkonce_odr hidden noundef nonnull align 4 dereferenceable(4) ptr @_ZNSt6vectorIN2cv13wechat_qrcode12BinarizerMgr9BINARIZERESaIS3_EEixEm(ptr noundef nonnull align 8 dereferenceable(24) %0, i64 noundef %1) #1 comdat align 2 {
  %3 = alloca ptr, align 8
  %4 = alloca i64, align 8
  store ptr %0, ptr %3, align 8, !tbaa !18
  store i64 %1, ptr %4, align 8, !tbaa !25
  %5 = load ptr, ptr %3, align 8
  %6 = getelementptr inbounds nuw %"struct.std::_Vector_base", ptr %5, i32 0, i32 0
  %7 = getelementptr inbounds nuw %"struct.std::_Vector_base<cv::wechat_qrcode::BinarizerMgr::BINARIZER, std::allocator<cv::wechat_qrcode::BinarizerMgr::BINARIZER>>::_Vector_impl_data", ptr %6, i32 0, i32 0
  %8 = load ptr, ptr %7, align 8, !tbaa !21
  %9 = load i64, ptr %4, align 8, !tbaa !25
  %10 = getelementptr inbounds nuw i32, ptr %8, i64 %9
  ret ptr %10
}

; Function Attrs: mustprogress nounwind uwtable
define hidden noundef i32 @_ZN2cv13wechat_qrcode12BinarizerMgr15GetCurBinarizerEv(ptr noundef nonnull align 8 dereferenceable(32) %0) #1 align 2 {
  %2 = alloca i32, align 4
  %3 = alloca ptr, align 8
  store ptr %0, ptr %3, align 8, !tbaa !3
  %4 = load ptr, ptr %3, align 8
  %5 = getelementptr inbounds nuw %"class.cv::wechat_qrcode::BinarizerMgr", ptr %4, i32 0, i32 1
  %6 = load i32, ptr %5, align 4, !tbaa !15
  %7 = icmp ne i32 %6, -1
  br i1 %7, label %8, label %11

8:                                                ; preds = %1
  %9 = getelementptr inbounds nuw %"class.cv::wechat_qrcode::BinarizerMgr", ptr %4, i32 0, i32 1
  %10 = load i32, ptr %9, align 4, !tbaa !15
  store i32 %10, ptr %2, align 4
  br label %18

11:                                               ; preds = %1
  %12 = getelementptr inbounds nuw %"class.cv::wechat_qrcode::BinarizerMgr", ptr %4, i32 0, i32 2
  %13 = getelementptr inbounds nuw %"class.cv::wechat_qrcode::BinarizerMgr", ptr %4, i32 0, i32 0
  %14 = load i32, ptr %13, align 8, !tbaa !8
  %15 = sext i32 %14 to i64
  %16 = call noundef nonnull align 4 dereferenceable(4) ptr @_ZNSt6vectorIN2cv13wechat_qrcode12BinarizerMgr9BINARIZERESaIS3_EEixEm(ptr noundef nonnull align 8 dereferenceable(24) %12, i64 noundef %15) #12
  %17 = load i32, ptr %16, align 4, !tbaa !16
  store i32 %17, ptr %2, align 4
  br label %18

18:                                               ; preds = %11, %8
  %19 = load i32, ptr %2, align 4
  ret i32 %19
}