; Function Attrs: mustprogress nofree norecurse nosync nounwind willreturn memory(read, inaccessiblemem: none) uwtable
define hidden noundef i32 @_ZN2cv13wechat_qrcode12BinarizerMgr15GetCurBinarizerEv(ptr noundef nonnull readonly align 8 captures(none) dereferenceable(32) %0) local_unnamed_addr #6 align 2 {
  %2 = getelementptr inbounds nuw i8, ptr %0, i64 4
  %3 = load i32, ptr %2, align 4, !tbaa !13
  %.not = icmp eq i32 %3, -1
  br i1 %.not, label %4, label %11

4:                                                ; preds = %1
  %5 = getelementptr inbounds nuw i8, ptr %0, i64 8
  %6 = load i32, ptr %0, align 8, !tbaa !3
  %7 = sext i32 %6 to i64
  %8 = load ptr, ptr %5, align 8, !tbaa !16
  %9 = getelementptr inbounds nuw i32, ptr %8, i64 %7
  %10 = load i32, ptr %9, align 4, !tbaa !14
  br label %11

11:                                               ; preds = %1, %4
  %.0 = phi i32 [ %10, %4 ], [ %3, %1 ]
  ret i32 %.0
}